target datalayout = "e-m:e-p270:32:32-p271:32:32-p272:64:64-i64:64-i128:128-f80:128-n8:16:32:64-S128"
target triple = "x86_64-pc-linux-gnu"

%"class.llvm::StringRef" = type { ptr, i64 }

; Function Attrs: mustprogress nounwind uwtable
define linkonce_odr hidden noundef zeroext i1 @_ZN4llvm7isUpperEc(i8 noundef signext %0) #0 comdat {
  %2 = alloca i8, align 1
  store i8 %0, ptr %2, align 1
  %3 = load i8, ptr %2, align 1
  %4 = sext i8 %3 to i32
  %5 = icmp sle i32 65, %4
  br i1 %5, label %6, label %10

6:                                                ; preds = %1
  %7 = load i8, ptr %2, align 1
  %8 = sext i8 %7 to i32
  %9 = icmp sle i32 %8, 90
  br label %10

10:                                               ; preds = %6, %1
  %11 = phi i1 [ false, %1 ], [ %9, %6 ]
  ret i1 %11
}

; Function Attrs: mustprogress nounwind uwtable
define linkonce_odr hidden noundef signext i8 @_ZN4llvm7toLowerEc(i8 noundef signext %0) #0 comdat {
  %2 = alloca i8, align 1
  %3 = alloca i8, align 1
  store i8 %0, ptr %3, align 1
  %4 = load i8, ptr %3, align 1
  %5 = call noundef zeroext i1 @_ZN4llvm7isUpperEc(i8 noundef signext %4)
  br i1 %5, label %6, label %12

6:                                                ; preds = %1
  %7 = load i8, ptr %3, align 1
  %8 = sext i8 %7 to i32
  %9 = sub nsw i32 %8, 65
  %10 = add nsw i32 %9, 97
  %11 = trunc i32 %10 to i8
  store i8 %11, ptr %2, align 1
  br label %14

12:                                               ; preds = %1
  %13 = load i8, ptr %3, align 1
  store i8 %13, ptr %2, align 1
  br label %14

14:                                               ; preds = %12, %6
  %15 = load i8, ptr %2, align 1
  ret i8 %15
}

; Function Attrs: mustprogress nounwind uwtable
define internal noundef i32 @_ZL17ascii_strncasecmpPKcS0_m(ptr noundef %0, ptr noundef %1, i64 noundef %2) #0 {
  %4 = alloca i32, align 4
  %5 = alloca ptr, align 8
  %6 = alloca ptr, align 8
  %7 = alloca i64, align 8
  %8 = alloca i64, align 8
  %9 = alloca i8, align 1
  %10 = alloca i8, align 1
  store ptr %0, ptr %5, align 8
  store ptr %1, ptr %6, align 8
  store i64 %2, ptr %7, align 8
  store i64 0, ptr %8, align 8
  br label %11

11:                                               ; preds = %39, %3
  %12 = load i64, ptr %8, align 8
  %13 = load i64, ptr %7, align 8
  %14 = icmp ult i64 %12, %13
  br i1 %14, label %15, label %42

15:                                               ; preds = %11
  %16 = load ptr, ptr %5, align 8
  %17 = load i64, ptr %8, align 8
  %18 = getelementptr inbounds i8, ptr %16, i64 %17
  %19 = load i8, ptr %18, align 1
  %20 = call noundef signext i8 @_ZN4llvm7toLowerEc(i8 noundef signext %19)
  store i8 %20, ptr %9, align 1
  %21 = load ptr, ptr %6, align 8
  %22 = load i64, ptr %8, align 8
  %23 = getelementptr inbounds i8, ptr %21, i64 %22
  %24 = load i8, ptr %23, align 1
  %25 = call noundef signext i8 @_ZN4llvm7toLowerEc(i8 noundef signext %24)
  store i8 %25, ptr %10, align 1
  %26 = load i8, ptr %9, align 1
  %27 = zext i8 %26 to i32
  %28 = load i8, ptr %10, align 1
  %29 = zext i8 %28 to i32
  %30 = icmp ne i32 %27, %29
  br i1 %30, label %31, label %38

31:                                               ; preds = %15
  %32 = load i8, ptr %9, align 1
  %33 = zext i8 %32 to i32
  %34 = load i8, ptr %10, align 1
  %35 = zext i8 %34 to i32
  %36 = icmp slt i32 %33, %35
  %37 = select i1 %36, i32 -1, i32 1
  store i32 %37, ptr %4, align 4
  br label %43

38:                                               ; preds = %15
  br label %39

39:                                               ; preds = %38
  %40 = load i64, ptr %8, align 8
  %41 = add i64 %40, 1
  store i64 %41, ptr %8, align 8
  br label %11, !llvm.loop !4

42:                                               ; preds = %11
  store i32 0, ptr %4, align 4
  br label %43

43:                                               ; preds = %42, %31
  %44 = load i32, ptr %4, align 4
  ret i32 %44
}

; Function Attrs: mustprogress nounwind uwtable
define dso_local noundef i32 @_ZNK4llvm9StringRef19compare_insensitiveES0_(ptr noundef nonnull align 8 dereferenceable(16) %0, ptr %1, i64 %2) #0 align 2 {
  %4 = alloca i32, align 4
  %5 = alloca %"class.llvm::StringRef", align 8
  %6 = alloca ptr, align 8
  %7 = alloca i32, align 4
  %8 = getelementptr inbounds nuw { ptr, i64 }, ptr %5, i32 0, i32 0
  store ptr %1, ptr %8, align 8
  %9 = getelementptr inbounds nuw { ptr, i64 }, ptr %5, i32 0, i32 1
  store i64 %2, ptr %9, align 8
  store ptr %0, ptr %6, align 8
  %10 = load ptr, ptr %6, align 8
  %11 = getelementptr inbounds nuw %"class.llvm::StringRef", ptr %10, i32 0, i32 0
  %12 = load ptr, ptr %11, align 8
  %13 = getelementptr inbounds nuw %"class.llvm::StringRef", ptr %5, i32 0, i32 0
  %14 = load ptr, ptr %13, align 8
  %15 = getelementptr inbounds nuw %"class.llvm::StringRef", ptr %10, i32 0, i32 1
  %16 = getelementptr inbounds nuw %"class.llvm::StringRef", ptr %5, i32 0, i32 1
  %17 = call noundef nonnull align 8 dereferenceable(8) ptr @_ZSt3minImERKT_S2_S2_(ptr noundef nonnull align 8 dereferenceable(8) %15, ptr noundef nonnull align 8 dereferenceable(8) %16)
  %18 = load i64, ptr %17, align 8
  %19 = call noundef i32 @_ZL17ascii_strncasecmpPKcS0_m(ptr noundef %12, ptr noundef %14, i64 noundef %18)
  store i32 %19, ptr %7, align 4
  %20 = load i32, ptr %7, align 4
  %21 = icmp ne i32 %20, 0
  br i1 %21, label %22, label %24

22:                                               ; preds = %3
  %23 = load i32, ptr %7, align 4
  store i32 %23, ptr %4, align 4
  br label %38

24:                                               ; preds = %3
  %25 = getelementptr inbounds nuw %"class.llvm::StringRef", ptr %10, i32 0, i32 1
  %26 = load i64, ptr %25, align 8
  %27 = getelementptr inbounds nuw %"class.llvm::StringRef", ptr %5, i32 0, i32 1
  %28 = load i64, ptr %27, align 8
  %29 = icmp eq i64 %26, %28
  br i1 %29, label %30, label %31

30:                                               ; preds = %24
  store i32 0, ptr %4, align 4
  br label %38

31:                                               ; preds = %24
  %32 = getelementptr inbounds nuw %"class.llvm::StringRef", ptr %10, i32 0, i32 1
  %33 = load i64, ptr %32, align 8
  %34 = getelementptr inbounds nuw %"class.llvm::StringRef", ptr %5, i32 0, i32 1
  %35 = load i64, ptr %34, align 8
  %36 = icmp ult i64 %33, %35
  %37 = select i1 %36, i32 -1, i32 1
  store i32 %37, ptr %4, align 4
  br label %38

38:                                               ; preds = %31, %30, %22
  %39 = load i32, ptr %4, align 4
  ret i32 %39
}

; Function Attrs: mustprogress nounwind uwtable
define linkonce_odr hidden void @_ZN4llvm9StringRefC2EPKcm(ptr noundef nonnull align 8 dereferenceable(16) %0, ptr noundef %1, i64 noundef %2) unnamed_addr #0 comdat align 2 {
  %4 = alloca ptr, align 8
  %5 = alloca ptr, align 8
  %6 = alloca i64, align 8
  store ptr %0, ptr %4, align 8
  store ptr %1, ptr %5, align 8
  store i64 %2, ptr %6, align 8
  %7 = load ptr, ptr %4, align 8
  %8 = getelementptr inbounds nuw %"class.llvm::StringRef", ptr %7, i32 0, i32 0
  %9 = load ptr, ptr %5, align 8
  store ptr %9, ptr %8, align 8
  %10 = getelementptr inbounds nuw %"class.llvm::StringRef", ptr %7, i32 0, i32 1
  %11 = load i64, ptr %6, align 8
  store i64 %11, ptr %10, align 8
  ret void
}

; Function Attrs: mustprogress nounwind uwtable
define linkonce_odr noundef nonnull align 8 dereferenceable(8) ptr @_ZSt3minImERKT_S2_S2_(ptr noundef nonnull align 8 dereferenceable(8) %0, ptr noundef nonnull align 8 dereferenceable(8) %1) #0 comdat {
  %3 = alloca ptr, align 8
  %4 = alloca ptr, align 8
  %5 = alloca ptr, align 8
  store ptr %0, ptr %4, align 8
  store ptr %1, ptr %5, align 8
  %6 = load ptr, ptr %5, align 8
  %7 = load i64, ptr %6, align 8
  %8 = load ptr, ptr %4, align 8
  %9 = load i64, ptr %8, align 8
  %10 = icmp ult i64 %7, %9
  br i1 %10, label %11, label %13

11:                                               ; preds = %2
  %12 = load ptr, ptr %5, align 8
  store ptr %12, ptr %3, align 8
  br label %15

13:                                               ; preds = %2
  %14 = load ptr, ptr %4, align 8
  store ptr %14, ptr %3, align 8
  br label %15

15:                                               ; preds = %13, %11
  %16 = load ptr, ptr %3, align 8
  ret ptr %16
}

; Function Attrs: mustprogress nounwind uwtable
define linkonce_odr hidden noundef zeroext i1 @_ZNK4llvm9StringRef18equals_insensitiveES0_(ptr noundef nonnull align 8 dereferenceable(16) %0, ptr %1, i64 %2) #0 comdat align 2 {
  %4 = alloca %"class.llvm::StringRef", align 8
  %5 = alloca ptr, align 8
  %6 = alloca %"class.llvm::StringRef", align 8
  %7 = getelementptr inbounds nuw { ptr, i64 }, ptr %4, i32 0, i32 0
  store ptr %1, ptr %7, align 8
  %8 = getelementptr inbounds nuw { ptr, i64 }, ptr %4, i32 0, i32 1
  store i64 %2, ptr %8, align 8
  store ptr %0, ptr %5, align 8
  %9 = load ptr, ptr %5, align 8
  %10 = getelementptr inbounds nuw %"class.llvm::StringRef", ptr %9, i32 0, i32 1
  %11 = load i64, ptr %10, align 8
  %12 = getelementptr inbounds nuw %"class.llvm::StringRef", ptr %4, i32 0, i32 1
  %13 = load i64, ptr %12, align 8
  %14 = icmp eq i64 %11, %13
  br i1 %14, label %15, label %22

15:                                               ; preds = %3
  call void @llvm.memcpy.p0.p0.i64(ptr align 8 %6, ptr align 8 %4, i64 16, i1 false)
  %16 = getelementptr inbounds nuw { ptr, i64 }, ptr %6, i32 0, i32 0
  %17 = load ptr, ptr %16, align 8
  %18 = getelementptr inbounds nuw { ptr, i64 }, ptr %6, i32 0, i32 1
  %19 = load i64, ptr %18, align 8
  %20 = call noundef i32 @_ZNK4llvm9StringRef19compare_insensitiveES0_(ptr noundef nonnull align 8 dereferenceable(16) %9, ptr %17, i64 %19)
  %21 = icmp eq i32 %20, 0
  br label %22

22:                                               ; preds = %15, %3
  %23 = phi i1 [ false, %3 ], [ %21, %15 ]
  ret i1 %23
}

; Function Attrs: mustprogress nounwind uwtable
define linkonce_odr hidden { ptr, i64 } @_ZNK4llvm9StringRef6substrEmm(ptr noundef nonnull align 8 dereferenceable(16) %0, i64 noundef %1, i64 noundef %2) #0 comdat align 2 {
  %4 = alloca %"class.llvm::StringRef", align 8
  %5 = alloca ptr, align 8
  %6 = alloca i64, align 8
  %7 = alloca i64, align 8
  %8 = alloca i64, align 8
  store ptr %0, ptr %5, align 8
  store i64 %1, ptr %6, align 8
  store i64 %2, ptr %7, align 8
  %9 = load ptr, ptr %5, align 8
  %10 = getelementptr inbounds nuw %"class.llvm::StringRef", ptr %9, i32 0, i32 1
  %11 = call noundef nonnull align 8 dereferenceable(8) ptr @_ZSt3minImERKT_S2_S2_(ptr noundef nonnull align 8 dereferenceable(8) %6, ptr noundef nonnull align 8 dereferenceable(8) %10)
  %12 = load i64, ptr %11, align 8
  store i64 %12, ptr %6, align 8
  %13 = getelementptr inbounds nuw %"class.llvm::StringRef", ptr %9, i32 0, i32 0
  %14 = load ptr, ptr %13, align 8
  %15 = load i64, ptr %6, align 8
  %16 = getelementptr inbounds i8, ptr %14, i64 %15
  %17 = getelementptr inbounds nuw %"class.llvm::StringRef", ptr %9, i32 0, i32 1
  %18 = load i64, ptr %17, align 8
  %19 = load i64, ptr %6, align 8
  %20 = sub i64 %18, %19
  store i64 %20, ptr %8, align 8
  %21 = call noundef nonnull align 8 dereferenceable(8) ptr @_ZSt3minImERKT_S2_S2_(ptr noundef nonnull align 8 dereferenceable(8) %7, ptr noundef nonnull align 8 dereferenceable(8) %8)
  %22 = load i64, ptr %21, align 8
  call void @_ZN4llvm9StringRefC2EPKcm(ptr noundef nonnull align 8 dereferenceable(16) %4, ptr noundef %16, i64 noundef %22)
  %23 = load { ptr, i64 }, ptr %4, align 8
  ret { ptr, i64 } %23
}

; Function Attrs: mustprogress nounwind uwtable
define linkonce_odr hidden noundef i64 @_ZNK4llvm9StringRef4sizeEv(ptr noundef nonnull align 8 dereferenceable(16) %0) #0 comdat align 2 {
  %2 = alloca ptr, align 8
  store ptr %0, ptr %2, align 8
  %3 = load ptr, ptr %2, align 8
  %4 = getelementptr inbounds nuw %"class.llvm::StringRef", ptr %3, i32 0, i32 1
  %5 = load i64, ptr %4, align 8
  ret i64 %5
}

; Function Attrs: mustprogress nounwind uwtable
define dso_local noundef i64 @_ZNK4llvm9StringRef17rfind_insensitiveES0_(ptr noundef nonnull align 8 dereferenceable(16) %0, ptr %1, i64 %2) #0 align 2 {
  %4 = alloca i64, align 8
  %5 = alloca %"class.llvm::StringRef", align 8
  %6 = alloca ptr, align 8
  %7 = alloca i64, align 8
  %8 = alloca i64, align 8
  %9 = alloca i64, align 8
  %10 = alloca %"class.llvm::StringRef", align 8
  %11 = alloca %"class.llvm::StringRef", align 8
  %12 = getelementptr inbounds nuw { ptr, i64 }, ptr %5, i32 0, i32 0
  store ptr %1, ptr %12, align 8
  %13 = getelementptr inbounds nuw { ptr, i64 }, ptr %5, i32 0, i32 1
  store i64 %2, ptr %13, align 8
  store ptr %0, ptr %6, align 8
  %14 = load ptr, ptr %6, align 8
  %15 = call noundef i64 @_ZNK4llvm9StringRef4sizeEv(ptr noundef nonnull align 8 dereferenceable(16) %5)
  store i64 %15, ptr %7, align 8
  %16 = load i64, ptr %7, align 8
  %17 = getelementptr inbounds nuw %"class.llvm::StringRef", ptr %14, i32 0, i32 1
  %18 = load i64, ptr %17, align 8
  %19 = icmp ugt i64 %16, %18
  br i1 %19, label %20, label %21

20:                                               ; preds = %3
  store i64 -1, ptr %4, align 8
  br label %50

21:                                               ; preds = %3
  %22 = getelementptr inbounds nuw %"class.llvm::StringRef", ptr %14, i32 0, i32 1
  %23 = load i64, ptr %22, align 8
  %24 = load i64, ptr %7, align 8
  %25 = sub i64 %23, %24
  %26 = add i64 %25, 1
  store i64 %26, ptr %8, align 8
  store i64 0, ptr %9, align 8
  br label %27

27:                                               ; preds = %48, %21
  %28 = load i64, ptr %8, align 8
  %29 = load i64, ptr %9, align 8
  %30 = icmp ne i64 %28, %29
  br i1 %30, label %31, label %49

31:                                               ; preds = %27
  %32 = load i64, ptr %8, align 8
  %33 = add i64 %32, -1
  store i64 %33, ptr %8, align 8
  %34 = load i64, ptr %8, align 8
  %35 = load i64, ptr %7, align 8
  %36 = call { ptr, i64 } @_ZNK4llvm9StringRef6substrEmm(ptr noundef nonnull align 8 dereferenceable(16) %14, i64 noundef %34, i64 noundef %35)
  %37 = getelementptr inbounds nuw { ptr, i64 }, ptr %10, i32 0, i32 0
  %38 = extractvalue { ptr, i64 } %36, 0
  store ptr %38, ptr %37, align 8
  %39 = getelementptr inbounds nuw { ptr, i64 }, ptr %10, i32 0, i32 1
  %40 = extractvalue { ptr, i64 } %36, 1
  store i64 %40, ptr %39, align 8
  call void @llvm.memcpy.p0.p0.i64(ptr align 8 %11, ptr align 8 %5, i64 16, i1 false)
  %41 = getelementptr inbounds nuw { ptr, i64 }, ptr %11, i32 0, i32 0
  %42 = load ptr, ptr %41, align 8
  %43 = getelementptr inbounds nuw { ptr, i64 }, ptr %11, i32 0, i32 1
  %44 = load i64, ptr %43, align 8
  %45 = call noundef zeroext i1 @_ZNK4llvm9StringRef18equals_insensitiveES0_(ptr noundef nonnull align 8 dereferenceable(16) %10, ptr %42, i64 %44)
  br i1 %45, label %46, label %48

46:                                               ; preds = %31
  %47 = load i64, ptr %8, align 8
  store i64 %47, ptr %4, align 8
  br label %50

48:                                               ; preds = %31
  br label %27, !llvm.loop !18

49:                                               ; preds = %27
  store i64 -1, ptr %4, align 8
  br label %50

50:                                               ; preds = %49, %46, %20
  %51 = load i64, ptr %4, align 8
  ret i64 %51
}