; Function Attrs: mustprogress nofree norecurse nosync nounwind willreturn memory(read, inaccessiblemem: none) uwtable
define dso_local noundef i64 @_ZNK4llvm9StringRef17rfind_insensitiveES0_(ptr noundef nonnull readonly align 8 captures(none) dereferenceable(16) %0, ptr readonly captures(none) %1, i64 %2) local_unnamed_addr #0 align 2 {
  %.fr = freeze i64 %2
  %4 = getelementptr inbounds nuw i8, ptr %0, i64 8
  %5 = load i64, ptr %4, align 8
  %6 = icmp ugt i64 %.fr, %5
  br i1 %6, label %_ZNK4llvm9StringRef18equals_insensitiveES0_.exit.thread, label %7

7:                                                ; preds = %3
  %reass.sub = sub nuw i64 %5, %.fr
  %8 = add i64 %reass.sub, 1
  %.not17 = icmp eq i64 %8, 0
  br i1 %.not17, label %_ZNK4llvm9StringRef18equals_insensitiveES0_.exit.thread, label %.lr.ph

.lr.ph:                                           ; preds = %7
  %9 = load ptr, ptr %0, align 8
  %.not16.i.i.i = icmp eq i64 %.fr, 0
  br i1 %.not16.i.i.i, label %_ZNK4llvm9StringRef18equals_insensitiveES0_.exit.thread, label %.lr.ph.split

.lr.ph.split:                                     ; preds = %.lr.ph, %_ZNK4llvm9StringRef18equals_insensitiveES0_.exit
  %.0918 = phi i64 [ %10, %_ZNK4llvm9StringRef18equals_insensitiveES0_.exit ], [ %8, %.lr.ph ]
  %10 = add i64 %.0918, -1
  %.sroa.speculated5.i = tail call i64 @llvm.umin.i64(i64 %5, i64 %10)
  %11 = getelementptr inbounds i8, ptr %9, i64 %.sroa.speculated5.i
  %12 = sub i64 %5, %.sroa.speculated5.i
  %.not15 = icmp ugt i64 %.fr, %12
  br i1 %.not15, label %_ZNK4llvm9StringRef18equals_insensitiveES0_.exit, label %.lr.ph.i.i.i

13:                                               ; preds = %.lr.ph.i.i.i
  %14 = add nuw i64 %.01115.i.i.i, 1
  %exitcond.not.i.i.i = icmp eq i64 %14, %.fr
  br i1 %exitcond.not.i.i.i, label %_ZNK4llvm9StringRef18equals_insensitiveES0_.exit.thread, label %.lr.ph.i.i.i, !llvm.loop !4

.lr.ph.i.i.i:                                     ; preds = %.lr.ph.split, %13
  %.01115.i.i.i = phi i64 [ %14, %13 ], [ 0, %.lr.ph.split ]
  %15 = getelementptr inbounds i8, ptr %11, i64 %.01115.i.i.i
  %16 = load i8, ptr %15, align 1
  %17 = add i8 %16, -65
  %18 = icmp ult i8 %17, 26
  %19 = add nuw nsw i8 %16, 32
  %.0.i.i.i.i = select i1 %18, i8 %19, i8 %16
  %20 = getelementptr inbounds i8, ptr %1, i64 %.01115.i.i.i
  %21 = load i8, ptr %20, align 1
  %22 = add i8 %21, -65
  %23 = icmp ult i8 %22, 26
  %24 = add nuw nsw i8 %21, 32
  %.0.i14.i.i.i = select i1 %23, i8 %24, i8 %21
  %.not.i.i.i = icmp eq i8 %.0.i.i.i.i, %.0.i14.i.i.i
  br i1 %.not.i.i.i, label %13, label %_ZNK4llvm9StringRef18equals_insensitiveES0_.exit

_ZNK4llvm9StringRef18equals_insensitiveES0_.exit: ; preds = %.lr.ph.i.i.i, %.lr.ph.split
  %.not = icmp eq i64 %10, 0
  br i1 %.not, label %_ZNK4llvm9StringRef18equals_insensitiveES0_.exit.thread, label %.lr.ph.split, !llvm.loop !19

_ZNK4llvm9StringRef18equals_insensitiveES0_.exit.thread: ; preds = %_ZNK4llvm9StringRef18equals_insensitiveES0_.exit, %13, %.lr.ph, %7, %3
  %.0 = phi i64 [ -1, %3 ], [ -1, %7 ], [ %reass.sub, %.lr.ph ], [ %10, %13 ], [ -1, %_ZNK4llvm9StringRef18equals_insensitiveES0_.exit ]
  ret i64 %.0
}